; Function Attrs: mustprogress uwtable
define void @_ZN32pxrInternal_v0_24__pxrReserved__20UsdImagingIndexProxy18GetMaterialAdapterERKNS_7UsdPrimE(ptr dead_on_unwind noalias writable writeonly sret(%"class.std::shared_ptr") align 8 captures(none) %0, ptr noundef nonnull align 8 dereferenceable(184) %1, ptr noundef nonnull align 8 dereferenceable(32) %2) local_unnamed_addr #0 align 2 personality ptr @__gxx_personality_v0 {
  %4 = alloca %"class.std::shared_ptr", align 8
  %5 = load ptr, ptr %1, align 8
  %6 = tail call noundef nonnull align 8 dereferenceable(16) ptr @_ZN32pxrInternal_v0_24__pxrReserved__18UsdImagingDelegate14_AdapterLookupERKNS_7UsdPrimEb(ptr noundef nonnull align 8 dereferenceable(9790) %5, ptr noundef nonnull align 8 dereferenceable(32) %2, i1 noundef zeroext true)
  %7 = load ptr, ptr %6, align 8
  store ptr %7, ptr %4, align 8
  %8 = getelementptr inbounds nuw i8, ptr %4, i64 8
  %9 = getelementptr inbounds nuw i8, ptr %6, i64 8
  %10 = load ptr, ptr %9, align 8
  store ptr %10, ptr %8, align 8
  %.not.i.i.i = icmp eq ptr %10, null
  br i1 %.not.i.i.i, label %_ZNSt10shared_ptrIN32pxrInternal_v0_24__pxrReserved__21UsdImagingPrimAdapterEEC2ERKS2_.exit, label %11

11:                                               ; preds = %3
  %12 = getelementptr inbounds nuw i8, ptr %10, i64 8
  %13 = load i8, ptr @__libc_single_threaded, align 1
  %.not.i.i.i.i = icmp eq i8 %13, 0
  br i1 %.not.i.i.i.i, label %17, label %14

14:                                               ; preds = %11
  %15 = load i32, ptr %12, align 4
  %16 = add nsw i32 %15, 1
  store i32 %16, ptr %12, align 4
  br label %_ZNSt10shared_ptrIN32pxrInternal_v0_24__pxrReserved__21UsdImagingPrimAdapterEEC2ERKS2_.exit

17:                                               ; preds = %11
  %18 = atomicrmw volatile add ptr %12, i32 1 acq_rel, align 4
  %.pre = load ptr, ptr %4, align 8
  br label %_ZNSt10shared_ptrIN32pxrInternal_v0_24__pxrReserved__21UsdImagingPrimAdapterEEC2ERKS2_.exit

_ZNSt10shared_ptrIN32pxrInternal_v0_24__pxrReserved__21UsdImagingPrimAdapterEEC2ERKS2_.exit: ; preds = %3, %14, %17
  %19 = phi ptr [ %7, %3 ], [ %7, %14 ], [ %.pre, %17 ]
  %.not = icmp eq ptr %19, null
  br i1 %.not, label %37, label %20

20:                                               ; preds = %_ZNSt10shared_ptrIN32pxrInternal_v0_24__pxrReserved__21UsdImagingPrimAdapterEEC2ERKS2_.exit
  %21 = load ptr, ptr %19, align 8
  %22 = getelementptr inbounds nuw i8, ptr %21, i64 512
  %23 = load ptr, ptr %22, align 8
  %24 = invoke noundef zeroext i1 %23(ptr noundef nonnull align 8 dereferenceable(32) %19, ptr noundef nonnull %1)
          to label %25 unwind label %72

25:                                               ; preds = %20
  br i1 %24, label %26, label %37

26:                                               ; preds = %25
  store ptr %19, ptr %0, align 8
  %27 = getelementptr inbounds nuw i8, ptr %0, i64 8
  %28 = load ptr, ptr %8, align 8
  store ptr %28, ptr %27, align 8
  %.not.i.i.i3 = icmp eq ptr %28, null
  br i1 %.not.i.i.i3, label %_ZNSt10shared_ptrIN32pxrInternal_v0_24__pxrReserved__21UsdImagingPrimAdapterEED2Ev.exit, label %29

29:                                               ; preds = %26
  %30 = getelementptr inbounds nuw i8, ptr %28, i64 8
  %31 = load i8, ptr @__libc_single_threaded, align 1
  %.not.i.i.i.i4 = icmp eq i8 %31, 0
  br i1 %.not.i.i.i.i4, label %35, label %32

32:                                               ; preds = %29
  %33 = load i32, ptr %30, align 4
  %34 = add nsw i32 %33, 1
  store i32 %34, ptr %30, align 4
  br label %_ZNSt10shared_ptrIN32pxrInternal_v0_24__pxrReserved__21UsdImagingPrimAdapterEEC2ERKS2_.exit5

35:                                               ; preds = %29
  %36 = atomicrmw volatile add ptr %30, i32 1 acq_rel, align 4
  br label %_ZNSt10shared_ptrIN32pxrInternal_v0_24__pxrReserved__21UsdImagingPrimAdapterEEC2ERKS2_.exit5

37:                                               ; preds = %25, %_ZNSt10shared_ptrIN32pxrInternal_v0_24__pxrReserved__21UsdImagingPrimAdapterEEC2ERKS2_.exit
  tail call void @llvm.memset.p0.i64(ptr noundef nonnull align 8 dereferenceable(16) %0, i8 0, i64 16, i1 false)
  br label %_ZNSt10shared_ptrIN32pxrInternal_v0_24__pxrReserved__21UsdImagingPrimAdapterEEC2ERKS2_.exit5

_ZNSt10shared_ptrIN32pxrInternal_v0_24__pxrReserved__21UsdImagingPrimAdapterEEC2ERKS2_.exit5: ; preds = %35, %32, %37
  %.pr = load ptr, ptr %8, align 8
  %.not.i.i.i6 = icmp eq ptr %.pr, null
  br i1 %.not.i.i.i6, label %_ZNSt10shared_ptrIN32pxrInternal_v0_24__pxrReserved__21UsdImagingPrimAdapterEED2Ev.exit, label %38

38:                                               ; preds = %_ZNSt10shared_ptrIN32pxrInternal_v0_24__pxrReserved__21UsdImagingPrimAdapterEEC2ERKS2_.exit5
  %39 = getelementptr inbounds nuw i8, ptr %.pr, i64 8
  %40 = load atomic i64, ptr %39 acquire, align 8
  %41 = icmp eq i64 %40, 4294967297
  %42 = trunc i64 %40 to i32
  br i1 %41, label %43, label %48

43:                                               ; preds = %38
  store i32 0, ptr %39, align 8
  %44 = getelementptr inbounds nuw i8, ptr %.pr, i64 12
  store i32 0, ptr %44, align 4
  %45 = load ptr, ptr %.pr, align 8
  %46 = getelementptr inbounds nuw i8, ptr %45, i64 16
  %47 = load ptr, ptr %46, align 8
  tail call void %47(ptr noundef nonnull align 8 dereferenceable(16) %.pr) #21
  br label %_ZNSt16_Sp_counted_baseILN9__gnu_cxx12_Lock_policyE2EE24_M_release_last_use_coldEv.exit.sink.split.i.i.i.i

48:                                               ; preds = %38
  %49 = load i8, ptr @__libc_single_threaded, align 1
  %.not.i.i.i.i7 = icmp eq i8 %49, 0
  br i1 %.not.i.i.i.i7, label %52, label %50

50:                                               ; preds = %48
  %51 = add nsw i32 %42, -1
  store i32 %51, ptr %39, align 4
  br label %54

52:                                               ; preds = %48
  %53 = atomicrmw volatile add ptr %39, i32 -1 acq_rel, align 4
  br label %54

54:                                               ; preds = %52, %50
  %.0.i.i.i.i = phi i32 [ %42, %50 ], [ %53, %52 ]
  %55 = icmp eq i32 %.0.i.i.i.i, 1
  br i1 %55, label %56, label %_ZNSt10shared_ptrIN32pxrInternal_v0_24__pxrReserved__21UsdImagingPrimAdapterEED2Ev.exit

56:                                               ; preds = %54
  %57 = load ptr, ptr %.pr, align 8
  %58 = getelementptr inbounds nuw i8, ptr %57, i64 16
  %59 = load ptr, ptr %58, align 8
  tail call void %59(ptr noundef nonnull align 8 dereferenceable(16) %.pr) #21
  %60 = getelementptr inbounds nuw i8, ptr %.pr, i64 12
  %61 = load i8, ptr @__libc_single_threaded, align 1
  %.not.i.i.i.i.i.i = icmp eq i8 %61, 0
  br i1 %.not.i.i.i.i.i.i, label %65, label %62

62:                                               ; preds = %56
  %63 = load i32, ptr %60, align 4
  %64 = add nsw i32 %63, -1
  store i32 %64, ptr %60, align 4
  br label %67

65:                                               ; preds = %56
  %66 = atomicrmw volatile add ptr %60, i32 -1 acq_rel, align 4
  br label %67

67:                                               ; preds = %65, %62
  %.0.i.i.i.i.i.i = phi i32 [ %63, %62 ], [ %66, %65 ]
  %68 = icmp eq i32 %.0.i.i.i.i.i.i, 1
  br i1 %68, label %_ZNSt16_Sp_counted_baseILN9__gnu_cxx12_Lock_policyE2EE24_M_release_last_use_coldEv.exit.sink.split.i.i.i.i, label %_ZNSt10shared_ptrIN32pxrInternal_v0_24__pxrReserved__21UsdImagingPrimAdapterEED2Ev.exit

_ZNSt16_Sp_counted_baseILN9__gnu_cxx12_Lock_policyE2EE24_M_release_last_use_coldEv.exit.sink.split.i.i.i.i: ; preds = %67, %43
  %69 = load ptr, ptr %.pr, align 8
  %70 = getelementptr inbounds nuw i8, ptr %69, i64 24
  %71 = load ptr, ptr %70, align 8
  tail call void %71(ptr noundef nonnull align 8 dereferenceable(16) %.pr) #21
  br label %_ZNSt10shared_ptrIN32pxrInternal_v0_24__pxrReserved__21UsdImagingPrimAdapterEED2Ev.exit

_ZNSt10shared_ptrIN32pxrInternal_v0_24__pxrReserved__21UsdImagingPrimAdapterEED2Ev.exit: ; preds = %26, %_ZNSt10shared_ptrIN32pxrInternal_v0_24__pxrReserved__21UsdImagingPrimAdapterEEC2ERKS2_.exit5, %54, %67, %_ZNSt16_Sp_counted_baseILN9__gnu_cxx12_Lock_policyE2EE24_M_release_last_use_coldEv.exit.sink.split.i.i.i.i
  ret void

72:                                               ; preds = %20
  %73 = landingpad { ptr, i32 }
          cleanup
  call void @_ZNSt10shared_ptrIN32pxrInternal_v0_24__pxrReserved__21UsdImagingPrimAdapterEED2Ev(ptr noundef nonnull align 8 dereferenceable(16) %4) #21
  resume { ptr, i32 } %73
}